; Function Attrs: nounwind uwtable
define dso_local noundef i32 @evutil_configure_monotonic_time_(ptr noundef writeonly captures(none) initializes((0, 4)) %base, i32 noundef %flags) local_unnamed_addr #1 {
entry:
  %ts = alloca %struct.timespec, align 8
  %and1 = and i32 %flags, 2
  %tobool2.not = icmp eq i32 %and1, 0
  %0 = and i32 %flags, 3
  %or.cond.not = icmp eq i32 %0, 0
  br i1 %or.cond.not, label %if.then, label %if.end4

if.then:                                          ; preds = %entry
  %call = call i32 @clock_gettime(i32 noundef 6, ptr noundef nonnull %ts) #8
  %cmp = icmp eq i32 %call, 0
  br i1 %cmp, label %return, label %if.end4

if.end4:                                          ; preds = %if.then, %entry
  br i1 %tobool2.not, label %land.lhs.true6, label %if.end11

land.lhs.true6:                                   ; preds = %if.end4
  %call7 = call i32 @clock_gettime(i32 noundef 1, ptr noundef nonnull %ts) #8
  %cmp8 = icmp eq i32 %call7, 0
  br i1 %cmp8, label %return, label %if.end11

if.end11:                                         ; preds = %land.lhs.true6, %if.end4
  br label %return

return:                                           ; preds = %land.lhs.true6, %if.then, %if.end11
  %.sink = phi i32 [ -1, %if.end11 ], [ 6, %if.then ], [ 1, %land.lhs.true6 ]
  store i32 %.sink, ptr %base, align 8
  ret i32 0
}